#include <math.h>
#include <stdio.h>
#include <stdlib.h>
#include <string.h>


int feibonaqi(int N);
int main()
{
	int n;
	int j;
	int a[1000];
	
	scanf("%d", &n);

	for (j = 0; j < n; j++ )
	{
		scanf("%d", &a[j]);
	}

	for (j = 0; j <n; j++)
	{
		printf("%d\n", feibonaqi(a[j]));
	
	}

	return 0;
}

int feibonaqi(int N)
{	int F[1000];
	int i;

	F[0] = 1;
	F[1] = 1;

	for (i = 2; i < N; i++)
	{
		F[i] = F[i-1] + F[i-2];
	}

	return F[N-1];




}
